; ModuleID = '39/200.c'
source_filename = "39/200.c"
target datalayout = "e-m:e-p270:32:32-p271:32:32-p272:64:64-i64:64-f80:128-n8:16:32:64-S128"
target triple = "x86_64-pc-linux-gnu"

%struct.student = type { [20 x i8], i32, i32, i8, i8, i32 }

@.str = private unnamed_addr constant [3 x i8] c"%d\00", align 1
@.str.1 = private unnamed_addr constant [3 x i8] c"%s\00", align 1
@.str.2 = private unnamed_addr constant [5 x i8] c"%d%d\00", align 1
@.str.3 = private unnamed_addr constant [7 x i8] c" %c %c\00", align 1
@.str.4 = private unnamed_addr constant [4 x i8] c"%s\0A\00", align 1
@.str.5 = private unnamed_addr constant [4 x i8] c"%d\0A\00", align 1

; Function Attrs: noinline nounwind uwtable
define dso_local void @main() #0 {
  %1 = alloca %struct.student*, align 8
  %2 = alloca i32, align 4
  %3 = alloca i32, align 4
  %4 = alloca i32, align 4
  %5 = alloca i32, align 4
  %6 = alloca i32, align 4
  %7 = alloca i32, align 4
  store i32 0, i32* %4, align 4
  store i32 0, i32* %5, align 4
  store i32 0, i32* %7, align 4
  %8 = call i32 (i8*, ...) @__isoc99_scanf(i8* getelementptr inbounds ([3 x i8], [3 x i8]* @.str, i64 0, i64 0), i32* %2)
  %9 = load i32, i32* %2, align 4
  %10 = sext i32 %9 to i64
  %11 = mul i64 %10, 36
  %12 = call noalias i8* @malloc(i64 %11) #3
  %13 = bitcast i8* %12 to %struct.student*
  store %struct.student* %13, %struct.student** %1, align 8
  store i32 0, i32* %3, align 4
  br label %14

14:                                               ; preds = %152, %0
  %15 = load i32, i32* %3, align 4
  %16 = load i32, i32* %2, align 4
  %17 = icmp slt i32 %15, %16
  br i1 %17, label %18, label %155

18:                                               ; preds = %14
  %19 = load %struct.student*, %struct.student** %1, align 8
  %20 = load i32, i32* %3, align 4
  %21 = sext i32 %20 to i64
  %22 = getelementptr inbounds %struct.student, %struct.student* %19, i64 %21
  %23 = getelementptr inbounds %struct.student, %struct.student* %22, i32 0, i32 0
  %24 = call i32 (i8*, ...) @__isoc99_scanf(i8* getelementptr inbounds ([3 x i8], [3 x i8]* @.str.1, i64 0, i64 0), [20 x i8]* %23)
  %25 = load %struct.student*, %struct.student** %1, align 8
  %26 = load i32, i32* %3, align 4
  %27 = sext i32 %26 to i64
  %28 = getelementptr inbounds %struct.student, %struct.student* %25, i64 %27
  %29 = getelementptr inbounds %struct.student, %struct.student* %28, i32 0, i32 1
  %30 = load %struct.student*, %struct.student** %1, align 8
  %31 = load i32, i32* %3, align 4
  %32 = sext i32 %31 to i64
  %33 = getelementptr inbounds %struct.student, %struct.student* %30, i64 %32
  %34 = getelementptr inbounds %struct.student, %struct.student* %33, i32 0, i32 2
  %35 = call i32 (i8*, ...) @__isoc99_scanf(i8* getelementptr inbounds ([5 x i8], [5 x i8]* @.str.2, i64 0, i64 0), i32* %29, i32* %34)
  %36 = load %struct.student*, %struct.student** %1, align 8
  %37 = load i32, i32* %3, align 4
  %38 = sext i32 %37 to i64
  %39 = getelementptr inbounds %struct.student, %struct.student* %36, i64 %38
  %40 = getelementptr inbounds %struct.student, %struct.student* %39, i32 0, i32 3
  %41 = load %struct.student*, %struct.student** %1, align 8
  %42 = load i32, i32* %3, align 4
  %43 = sext i32 %42 to i64
  %44 = getelementptr inbounds %struct.student, %struct.student* %41, i64 %43
  %45 = getelementptr inbounds %struct.student, %struct.student* %44, i32 0, i32 4
  %46 = call i32 (i8*, ...) @__isoc99_scanf(i8* getelementptr inbounds ([7 x i8], [7 x i8]* @.str.3, i64 0, i64 0), i8* %40, i8* %45)
  %47 = load %struct.student*, %struct.student** %1, align 8
  %48 = load i32, i32* %3, align 4
  %49 = sext i32 %48 to i64
  %50 = getelementptr inbounds %struct.student, %struct.student* %47, i64 %49
  %51 = getelementptr inbounds %struct.student, %struct.student* %50, i32 0, i32 5
  %52 = call i32 (i8*, ...) @__isoc99_scanf(i8* getelementptr inbounds ([3 x i8], [3 x i8]* @.str, i64 0, i64 0), i32* %51)
  %53 = load %struct.student*, %struct.student** %1, align 8
  %54 = load i32, i32* %3, align 4
  %55 = sext i32 %54 to i64
  %56 = getelementptr inbounds %struct.student, %struct.student* %53, i64 %55
  %57 = getelementptr inbounds %struct.student, %struct.student* %56, i32 0, i32 1
  %58 = load i32, i32* %57, align 4
  %59 = icmp sgt i32 %58, 80
  br i1 %59, label %60, label %71

60:                                               ; preds = %18
  %61 = load %struct.student*, %struct.student** %1, align 8
  %62 = load i32, i32* %3, align 4
  %63 = sext i32 %62 to i64
  %64 = getelementptr inbounds %struct.student, %struct.student* %61, i64 %63
  %65 = getelementptr inbounds %struct.student, %struct.student* %64, i32 0, i32 5
  %66 = load i32, i32* %65, align 4
  %67 = icmp ne i32 %66, 0
  br i1 %67, label %68, label %71

68:                                               ; preds = %60
  %69 = load i32, i32* %7, align 4
  %70 = add nsw i32 %69, 8000
  store i32 %70, i32* %7, align 4
  br label %71

71:                                               ; preds = %68, %60, %18
  %72 = load %struct.student*, %struct.student** %1, align 8
  %73 = load i32, i32* %3, align 4
  %74 = sext i32 %73 to i64
  %75 = getelementptr inbounds %struct.student, %struct.student* %72, i64 %74
  %76 = getelementptr inbounds %struct.student, %struct.student* %75, i32 0, i32 1
  %77 = load i32, i32* %76, align 4
  %78 = icmp sgt i32 %77, 85
  br i1 %78, label %79, label %90

79:                                               ; preds = %71
  %80 = load %struct.student*, %struct.student** %1, align 8
  %81 = load i32, i32* %3, align 4
  %82 = sext i32 %81 to i64
  %83 = getelementptr inbounds %struct.student, %struct.student* %80, i64 %82
  %84 = getelementptr inbounds %struct.student, %struct.student* %83, i32 0, i32 2
  %85 = load i32, i32* %84, align 4
  %86 = icmp sgt i32 %85, 80
  br i1 %86, label %87, label %90

87:                                               ; preds = %79
  %88 = load i32, i32* %7, align 4
  %89 = add nsw i32 %88, 4000
  store i32 %89, i32* %7, align 4
  br label %90

90:                                               ; preds = %87, %79, %71
  %91 = load %struct.student*, %struct.student** %1, align 8
  %92 = load i32, i32* %3, align 4
  %93 = sext i32 %92 to i64
  %94 = getelementptr inbounds %struct.student, %struct.student* %91, i64 %93
  %95 = getelementptr inbounds %struct.student, %struct.student* %94, i32 0, i32 1
  %96 = load i32, i32* %95, align 4
  %97 = icmp sgt i32 %96, 90
  br i1 %97, label %98, label %101

98:                                               ; preds = %90
  %99 = load i32, i32* %7, align 4
  %100 = add nsw i32 %99, 2000
  store i32 %100, i32* %7, align 4
  br label %101

101:                                              ; preds = %98, %90
  %102 = load %struct.student*, %struct.student** %1, align 8
  %103 = load i32, i32* %3, align 4
  %104 = sext i32 %103 to i64
  %105 = getelementptr inbounds %struct.student, %struct.student* %102, i64 %104
  %106 = getelementptr inbounds %struct.student, %struct.student* %105, i32 0, i32 1
  %107 = load i32, i32* %106, align 4
  %108 = icmp sgt i32 %107, 85
  br i1 %108, label %109, label %121

109:                                              ; preds = %101
  %110 = load %struct.student*, %struct.student** %1, align 8
  %111 = load i32, i32* %3, align 4
  %112 = sext i32 %111 to i64
  %113 = getelementptr inbounds %struct.student, %struct.student* %110, i64 %112
  %114 = getelementptr inbounds %struct.student, %struct.student* %113, i32 0, i32 4
  %115 = load i8, i8* %114, align 1
  %116 = sext i8 %115 to i32
  %117 = icmp eq i32 %116, 89
  br i1 %117, label %118, label %121

118:                                              ; preds = %109
  %119 = load i32, i32* %7, align 4
  %120 = add nsw i32 %119, 1000
  store i32 %120, i32* %7, align 4
  br label %121

121:                                              ; preds = %118, %109, %101
  %122 = load %struct.student*, %struct.student** %1, align 8
  %123 = load i32, i32* %3, align 4
  %124 = sext i32 %123 to i64
  %125 = getelementptr inbounds %struct.student, %struct.student* %122, i64 %124
  %126 = getelementptr inbounds %struct.student, %struct.student* %125, i32 0, i32 2
  %127 = load i32, i32* %126, align 4
  %128 = icmp sgt i32 %127, 80
  br i1 %128, label %129, label %141

129:                                              ; preds = %121
  %130 = load %struct.student*, %struct.student** %1, align 8
  %131 = load i32, i32* %3, align 4
  %132 = sext i32 %131 to i64
  %133 = getelementptr inbounds %struct.student, %struct.student* %130, i64 %132
  %134 = getelementptr inbounds %struct.student, %struct.student* %133, i32 0, i32 3
  %135 = load i8, i8* %134, align 4
  %136 = sext i8 %135 to i32
  %137 = icmp eq i32 %136, 89
  br i1 %137, label %138, label %141

138:                                              ; preds = %129
  %139 = load i32, i32* %7, align 4
  %140 = add nsw i32 %139, 850
  store i32 %140, i32* %7, align 4
  br label %141

141:                                              ; preds = %138, %129, %121
  %142 = load i32, i32* %7, align 4
  %143 = load i32, i32* %5, align 4
  %144 = icmp sgt i32 %142, %143
  br i1 %144, label %145, label %148

145:                                              ; preds = %141
  %146 = load i32, i32* %7, align 4
  store i32 %146, i32* %5, align 4
  %147 = load i32, i32* %3, align 4
  store i32 %147, i32* %6, align 4
  br label %148

148:                                              ; preds = %145, %141
  %149 = load i32, i32* %7, align 4
  %150 = load i32, i32* %4, align 4
  %151 = add nsw i32 %150, %149
  store i32 %151, i32* %4, align 4
  br label %152

152:                                              ; preds = %148
  %153 = load i32, i32* %3, align 4
  %154 = add nsw i32 %153, 1
  store i32 %154, i32* %3, align 4
  store i32 0, i32* %7, align 4
  br label %14

155:                                              ; preds = %14
  %156 = load %struct.student*, %struct.student** %1, align 8
  %157 = load i32, i32* %6, align 4
  %158 = sext i32 %157 to i64
  %159 = getelementptr inbounds %struct.student, %struct.student* %156, i64 %158
  %160 = getelementptr inbounds %struct.student, %struct.student* %159, i32 0, i32 0
  %161 = getelementptr inbounds [20 x i8], [20 x i8]* %160, i64 0, i64 0
  %162 = call i32 (i8*, ...) @printf(i8* getelementptr inbounds ([4 x i8], [4 x i8]* @.str.4, i64 0, i64 0), i8* %161)
  %163 = load i32, i32* %5, align 4
  %164 = call i32 (i8*, ...) @printf(i8* getelementptr inbounds ([4 x i8], [4 x i8]* @.str.5, i64 0, i64 0), i32 %163)
  %165 = load i32, i32* %4, align 4
  %166 = call i32 (i8*, ...) @printf(i8* getelementptr inbounds ([4 x i8], [4 x i8]* @.str.5, i64 0, i64 0), i32 %165)
  ret void
}

declare dso_local i32 @__isoc99_scanf(i8*, ...) #1

; Function Attrs: nounwind
declare dso_local noalias i8* @malloc(i64) #2

declare dso_local i32 @printf(i8*, ...) #1


!llvm.module.flags = !{!0}
!llvm.ident = !{!1}

!0 = !{i32 1, !"wchar_size", i32 4}
!1 = !{!"clang version 10.0.0-4ubuntu1 "}
